target datalayout = "e-m:e-p270:32:32-p271:32:32-p272:64:64-i64:64-i128:128-f80:128-n8:16:32:64-S128"
target triple = "x86_64-pc-linux-gnu"

%struct.ARKodeMemRec = type { ptr, double, ptr, i32, i32, double, double, ptr, i32, double, ptr, i32, i32, ptr, ptr, i32, ptr, ptr, i32, ptr, ptr, ptr, ptr, ptr, ptr, ptr, ptr, ptr, ptr, ptr, ptr, ptr, ptr, ptr, i32, ptr, ptr, i32, ptr, i32, ptr, ptr, ptr, ptr, ptr, ptr, ptr, ptr, ptr, ptr, ptr, ptr, ptr, ptr, ptr, ptr, ptr, ptr, ptr, ptr, ptr, ptr, ptr, ptr, ptr, ptr, i32, ptr, ptr, ptr, ptr, ptr, ptr, ptr, i32, ptr, ptr, ptr, i32, ptr, ptr, ptr, ptr, ptr, ptr, ptr, i32, i32, i32, i32, double, double, double, double, double, double, double, double, double, double, i32, ptr, i64, i32, i32, i32, i32, i64, i64, i32, i64, i64, i64, i64, i64, i64, i64, double, double, double, double, double, i32, double, double, i32, i32, i32, i32, i32, i32, i32, i32, ptr, i32, ptr, ptr, ptr, ptr, i32, i32, i32 }
%struct.ARKodeLSRKStepMemRec = type { ptr, ptr, i32, i32, i32, i32, i64, i64, i32, i32, i64, i64, double, double, double, double, double, double, i64, i32, i32, i32, i32, ptr, ptr, i32 }

; Function Attrs: nounwind uwtable
define void @lsrkStep_Free(ptr noundef %0) #0 {
  %2 = alloca ptr, align 8
  %3 = alloca ptr, align 8
  %4 = alloca i32, align 4
  store ptr %0, ptr %2, align 8, !tbaa !13
  call void @llvm.lifetime.start.p0(i64 8, ptr %3) #6
  %5 = load ptr, ptr %2, align 8, !tbaa !13
  %6 = icmp eq ptr %5, null
  br i1 %6, label %7, label %8

7:                                                ; preds = %1
  store i32 1, ptr %4, align 4
  br label %61

8:                                                ; preds = %1
  %9 = load ptr, ptr %2, align 8, !tbaa !13
  %10 = getelementptr inbounds nuw %struct.ARKodeMemRec, ptr %9, i32 0, i32 19
  %11 = load ptr, ptr %10, align 8, !tbaa !35
  %12 = icmp ne ptr %11, null
  br i1 %12, label %13, label %60

13:                                               ; preds = %8
  %14 = load ptr, ptr %2, align 8, !tbaa !13
  %15 = getelementptr inbounds nuw %struct.ARKodeMemRec, ptr %14, i32 0, i32 19
  %16 = load ptr, ptr %15, align 8, !tbaa !35
  store ptr %16, ptr %3, align 8, !tbaa !17
  %17 = load ptr, ptr %3, align 8, !tbaa !17
  %18 = getelementptr inbounds nuw %struct.ARKodeLSRKStepMemRec, ptr %17, i32 0, i32 23
  %19 = load ptr, ptr %18, align 8, !tbaa !47
  %20 = icmp ne ptr %19, null
  br i1 %20, label %21, label %35

21:                                               ; preds = %13
  %22 = load ptr, ptr %3, align 8, !tbaa !17
  %23 = getelementptr inbounds nuw %struct.ARKodeLSRKStepMemRec, ptr %22, i32 0, i32 23
  %24 = load ptr, ptr %23, align 8, !tbaa !47
  call void @free(ptr noundef %24) #6
  %25 = load ptr, ptr %3, align 8, !tbaa !17
  %26 = getelementptr inbounds nuw %struct.ARKodeLSRKStepMemRec, ptr %25, i32 0, i32 23
  store ptr null, ptr %26, align 8, !tbaa !47
  %27 = load ptr, ptr %3, align 8, !tbaa !17
  %28 = getelementptr inbounds nuw %struct.ARKodeLSRKStepMemRec, ptr %27, i32 0, i32 25
  %29 = load i32, ptr %28, align 8, !tbaa !48
  %30 = sext i32 %29 to i64
  %31 = load ptr, ptr %2, align 8, !tbaa !13
  %32 = getelementptr inbounds nuw %struct.ARKodeMemRec, ptr %31, i32 0, i32 115
  %33 = load i64, ptr %32, align 8, !tbaa !49
  %34 = sub nsw i64 %33, %30
  store i64 %34, ptr %32, align 8, !tbaa !49
  br label %35

35:                                               ; preds = %21, %13
  %36 = load ptr, ptr %3, align 8, !tbaa !17
  %37 = getelementptr inbounds nuw %struct.ARKodeLSRKStepMemRec, ptr %36, i32 0, i32 24
  %38 = load ptr, ptr %37, align 8, !tbaa !50
  %39 = icmp ne ptr %38, null
  br i1 %39, label %40, label %54

40:                                               ; preds = %35
  %41 = load ptr, ptr %3, align 8, !tbaa !17
  %42 = getelementptr inbounds nuw %struct.ARKodeLSRKStepMemRec, ptr %41, i32 0, i32 24
  %43 = load ptr, ptr %42, align 8, !tbaa !50
  call void @free(ptr noundef %43) #6
  %44 = load ptr, ptr %3, align 8, !tbaa !17
  %45 = getelementptr inbounds nuw %struct.ARKodeLSRKStepMemRec, ptr %44, i32 0, i32 24
  store ptr null, ptr %45, align 8, !tbaa !50
  %46 = load ptr, ptr %3, align 8, !tbaa !17
  %47 = getelementptr inbounds nuw %struct.ARKodeLSRKStepMemRec, ptr %46, i32 0, i32 25
  %48 = load i32, ptr %47, align 8, !tbaa !48
  %49 = sext i32 %48 to i64
  %50 = load ptr, ptr %2, align 8, !tbaa !13
  %51 = getelementptr inbounds nuw %struct.ARKodeMemRec, ptr %50, i32 0, i32 116
  %52 = load i64, ptr %51, align 8, !tbaa !51
  %53 = sub nsw i64 %52, %49
  store i64 %53, ptr %51, align 8, !tbaa !51
  br label %54

54:                                               ; preds = %40, %35
  %55 = load ptr, ptr %2, align 8, !tbaa !13
  %56 = getelementptr inbounds nuw %struct.ARKodeMemRec, ptr %55, i32 0, i32 19
  %57 = load ptr, ptr %56, align 8, !tbaa !35
  call void @free(ptr noundef %57) #6
  %58 = load ptr, ptr %2, align 8, !tbaa !13
  %59 = getelementptr inbounds nuw %struct.ARKodeMemRec, ptr %58, i32 0, i32 19
  store ptr null, ptr %59, align 8, !tbaa !35
  br label %60

60:                                               ; preds = %54, %8
  store i32 0, ptr %4, align 4
  br label %61

61:                                               ; preds = %60, %7
  call void @llvm.lifetime.end.p0(i64 8, ptr %3) #6
  %62 = load i32, ptr %4, align 4
  switch i32 %62, label %64 [
    i32 0, label %63
    i32 1, label %63
  ]

63:                                               ; preds = %61, %61
  ret void

64:                                               ; preds = %61
  unreachable
}

; Function Attrs: nounwind uwtable
define ptr @LSRKStepCreateSTS(ptr noundef %0, double noundef %1, ptr noundef %2, ptr noundef %3) #0 {
  %5 = alloca ptr, align 8
  %6 = alloca ptr, align 8
  %7 = alloca double, align 8
  %8 = alloca ptr, align 8
  %9 = alloca ptr, align 8
  %10 = alloca ptr, align 8
  %11 = alloca i32, align 4
  %12 = alloca i32, align 4
  store ptr %0, ptr %6, align 8, !tbaa !3
  store double %1, ptr %7, align 8, !tbaa !7
  store ptr %2, ptr %8, align 8, !tbaa !9
  store ptr %3, ptr %9, align 8, !tbaa !11
  call void @llvm.lifetime.start.p0(i64 8, ptr %10) #6
  call void @llvm.lifetime.start.p0(i64 4, ptr %11) #6
  %13 = load ptr, ptr %6, align 8, !tbaa !3
  %14 = load double, ptr %7, align 8, !tbaa !7
  %15 = load ptr, ptr %8, align 8, !tbaa !9
  %16 = load ptr, ptr %9, align 8, !tbaa !11
  %17 = call ptr @lsrkStep_Create_Commons(ptr noundef %13, double noundef %14, ptr noundef %15, ptr noundef %16)
  store ptr %17, ptr %10, align 8, !tbaa !13
  %18 = load ptr, ptr %10, align 8, !tbaa !13
  %19 = call i32 @LSRKStepSetSTSMethod(ptr noundef %18, i32 noundef 0)
  store i32 %19, ptr %11, align 4, !tbaa !15
  %20 = load i32, ptr %11, align 4, !tbaa !15
  %21 = icmp ne i32 %20, 0
  br i1 %21, label %22, label %24

22:                                               ; preds = %4
  %23 = load ptr, ptr %10, align 8, !tbaa !13
  call void @lsrkStep_Free(ptr noundef %23)
  store ptr null, ptr %5, align 8
  store i32 1, ptr %12, align 4
  br label %26

24:                                               ; preds = %4
  %25 = load ptr, ptr %10, align 8, !tbaa !13
  store ptr %25, ptr %5, align 8
  store i32 1, ptr %12, align 4
  br label %26

26:                                               ; preds = %24, %22
  call void @llvm.lifetime.end.p0(i64 4, ptr %11) #6
  call void @llvm.lifetime.end.p0(i64 8, ptr %10) #6
  %27 = load ptr, ptr %5, align 8
  ret ptr %27
}