; Function Attrs: nounwind uwtable
define noundef ptr @LSRKStepCreateSTS(ptr noundef %0, double noundef %1, ptr noundef %2, ptr noundef %3) local_unnamed_addr #0 {
  %5 = tail call ptr @lsrkStep_Create_Commons(ptr noundef %0, double noundef %1, ptr noundef %2, ptr noundef %3)
  %6 = tail call i32 @LSRKStepSetSTSMethod(ptr noundef %5, i32 noundef 0) #13
  %.not = icmp eq i32 %6, 0
  br i1 %.not, label %lsrkStep_Free.exit, label %7

7:                                                ; preds = %4
  %8 = icmp eq ptr %5, null
  br i1 %8, label %lsrkStep_Free.exit, label %9

9:                                                ; preds = %7
  %10 = getelementptr inbounds nuw i8, ptr %5, i64 136
  %11 = load ptr, ptr %10, align 8, !tbaa !3
  %.not.i = icmp eq ptr %11, null
  br i1 %.not.i, label %lsrkStep_Free.exit, label %12

12:                                               ; preds = %9
  %13 = getelementptr inbounds nuw i8, ptr %11, i64 144
  %14 = load ptr, ptr %13, align 8, !tbaa !17
  %.not18.i = icmp eq ptr %14, null
  br i1 %.not18.i, label %22, label %15

15:                                               ; preds = %12
  tail call void @free(ptr noundef nonnull %14) #13
  store ptr null, ptr %13, align 8, !tbaa !17
  %16 = getelementptr inbounds nuw i8, ptr %11, i64 160
  %17 = load i32, ptr %16, align 8, !tbaa !21
  %18 = sext i32 %17 to i64
  %19 = getelementptr inbounds nuw i8, ptr %5, i64 872
  %20 = load i64, ptr %19, align 8, !tbaa !22
  %21 = sub nsw i64 %20, %18
  store i64 %21, ptr %19, align 8, !tbaa !22
  br label %22

22:                                               ; preds = %15, %12
  %23 = getelementptr inbounds nuw i8, ptr %11, i64 152
  %24 = load ptr, ptr %23, align 8, !tbaa !23
  %.not19.i = icmp eq ptr %24, null
  br i1 %.not19.i, label %32, label %25

25:                                               ; preds = %22
  tail call void @free(ptr noundef nonnull %24) #13
  store ptr null, ptr %23, align 8, !tbaa !23
  %26 = getelementptr inbounds nuw i8, ptr %11, i64 160
  %27 = load i32, ptr %26, align 8, !tbaa !21
  %28 = sext i32 %27 to i64
  %29 = getelementptr inbounds nuw i8, ptr %5, i64 880
  %30 = load i64, ptr %29, align 8, !tbaa !24
  %31 = sub nsw i64 %30, %28
  store i64 %31, ptr %29, align 8, !tbaa !24
  br label %32

32:                                               ; preds = %25, %22
  %33 = load ptr, ptr %10, align 8, !tbaa !3
  tail call void @free(ptr noundef %33) #13
  store ptr null, ptr %10, align 8, !tbaa !3
  br label %lsrkStep_Free.exit

lsrkStep_Free.exit:                               ; preds = %32, %9, %7, %4
  %.0 = phi ptr [ %5, %4 ], [ null, %7 ], [ null, %9 ], [ null, %32 ]
  ret ptr %.0
}